; Function Attrs: mustprogress null_pointer_is_valid sspstrong uwtable
define void @_ZN23LBMLBTRUTransportDialog30sourcesDetailItemDoubleClickedEP15QTreeWidgetItemi(ptr noundef align 8 dereferenceable_or_null(112) %0, ptr noundef readonly %1, i32 noundef %2) local_unnamed_addr #0 align 2 {
  %4 = icmp eq ptr %1, null
  br i1 %4, label %.thread, label %5

5:                                                ; preds = %3
  %6 = tail call ptr @__dynamic_cast(ptr nonnull %1, ptr nonnull @_ZTI15QTreeWidgetItem, ptr nonnull @_ZTI18LBMLBTRUFrameEntry, i64 0) #19
  %7 = icmp eq ptr %6, null
  br i1 %7, label %.thread, label %8

8:                                                ; preds = %5
  %9 = getelementptr inbounds nuw i8, ptr %6, i64 92
  %10 = load i32, ptr %9, align 4
  tail call void @_ZN23LBMLBTRUTransportDialog10goToPacketEi(ptr noundef align 8 dereferenceable_or_null(112) %0, i32 noundef %10)
  br label %.thread

.thread:                                          ; preds = %3, %5, %8
  ret void
}